; Function Attrs: null_pointer_is_valid sspstrong uwtable
define internal noundef i32 @column_hidden_set_cb(ptr noundef readonly captures(address_is_null) %0, ptr noundef %1, ptr noundef captures(none) %2) #1 {
  %4 = alloca %struct.find_pref_arg_t, align 8
  store i8 1, ptr getelementptr inbounds nuw (i8, ptr @prefs, i64 405), align 1
  %5 = getelementptr inbounds nuw i8, ptr %0, i64 40
  %6 = load ptr, ptr %5, align 8
  %7 = load ptr, ptr %6, align 8
  %.not.i = icmp eq ptr %7, null
  br i1 %.not.i, label %15, label %8

8:                                                ; preds = %3
  %9 = tail call i32 @strcmp(ptr noundef nonnull dereferenceable(1) %7, ptr noundef %1) #29
  %.not34.i = icmp eq i32 %9, 0
  br i1 %.not34.i, label %prefs_set_string_value.exit, label %10

10:                                               ; preds = %8
  %11 = icmp eq ptr %0, null
  br i1 %11, label %prefs_set_string_value.exit.sink.split, label %12

12:                                               ; preds = %10
  %13 = getelementptr inbounds nuw i8, ptr %0, i64 32
  %14 = load i32, ptr %13, align 8
  br label %prefs_set_string_value.exit.sink.split

15:                                               ; preds = %3
  %.not33.i = icmp eq ptr %1, null
  br i1 %.not33.i, label %prefs_set_string_value.exit, label %prefs_set_string_value.exit.sink.split

prefs_set_string_value.exit.sink.split:           ; preds = %15, %10, %12
  %.sink = phi ptr [ %7, %12 ], [ %7, %10 ], [ null, %15 ]
  %.0.i.ph = phi i32 [ %14, %12 ], [ 0, %10 ], [ 0, %15 ]
  tail call void @g_free(ptr noundef %.sink)
  %16 = tail call noalias ptr @g_strdup(ptr noundef %1)
  %17 = load ptr, ptr %5, align 8
  store ptr %16, ptr %17, align 8
  br label %prefs_set_string_value.exit

prefs_set_string_value.exit:                      ; preds = %prefs_set_string_value.exit.sink.split, %8, %15
  %.0.i = phi i32 [ 0, %8 ], [ 0, %15 ], [ %.0.i.ph, %prefs_set_string_value.exit.sink.split ]
  %18 = load i32, ptr %2, align 4
  %19 = or i32 %18, %.0.i
  store i32 %19, ptr %2, align 4
  %20 = load ptr, ptr @gui_column_module, align 8
  call void @llvm.lifetime.start.p0(i64 24, ptr nonnull %4) #25
  %21 = icmp eq ptr %20, null
  br i1 %21, label %prefs_find_preference.exit.thread, label %22

22:                                               ; preds = %prefs_set_string_value.exit
  %23 = getelementptr inbounds nuw i8, ptr %20, i64 40
  %24 = load ptr, ptr %23, align 8
  %25 = tail call ptr @g_list_find_custom(ptr noundef %24, ptr noundef nonnull @.str.131, ptr noundef nonnull @preference_match)
  %26 = getelementptr inbounds nuw i8, ptr %4, i64 16
  store ptr null, ptr %26, align 8
  %27 = icmp eq ptr %25, null
  br i1 %27, label %28, label %prefs_find_preference.exit

28:                                               ; preds = %22
  store ptr null, ptr %4, align 8
  %29 = getelementptr inbounds nuw i8, ptr %20, i64 56
  %30 = load ptr, ptr %29, align 8
  %.not.i.i = icmp eq ptr %30, null
  br i1 %.not.i.i, label %prefs_find_preference.exit.thread, label %31

31:                                               ; preds = %28
  %32 = getelementptr inbounds nuw i8, ptr %4, i64 8
  store ptr @.str.131, ptr %32, align 8
  %33 = call zeroext i1 @wmem_tree_foreach(ptr noundef nonnull %30, ptr noundef nonnull @module_find_pref_cb, ptr noundef nonnull %4)
  %.pr.i.i = load ptr, ptr %4, align 8
  %34 = icmp eq ptr %.pr.i.i, null
  br i1 %34, label %prefs_find_preference.exit.thread, label %prefs_find_preference.exit

prefs_find_preference.exit.thread:                ; preds = %prefs_set_string_value.exit, %31, %28
  call void @llvm.lifetime.end.p0(i64 24, ptr nonnull %4) #25
  br label %._crit_edge

prefs_find_preference.exit:                       ; preds = %22, %31
  %.020.i.i = phi ptr [ %.pr.i.i, %31 ], [ %25, %22 ]
  %35 = load ptr, ptr %.020.i.i, align 8
  call void @llvm.lifetime.end.p0(i64 24, ptr nonnull %4) #25
  %.not = icmp eq ptr %35, null
  br i1 %.not, label %._crit_edge, label %36

36:                                               ; preds = %prefs_find_preference.exit
  %37 = getelementptr inbounds nuw i8, ptr %35, i64 40
  %38 = load ptr, ptr %37, align 8
  %39 = load ptr, ptr %38, align 8
  %.not1316 = icmp eq ptr %39, null
  br i1 %.not1316, label %._crit_edge, label %.lr.ph

.lr.ph:                                           ; preds = %36, %.lr.ph
  %.018 = phi i32 [ %46, %.lr.ph ], [ 1, %36 ]
  %.01117 = phi ptr [ %48, %.lr.ph ], [ %39, %36 ]
  %40 = load ptr, ptr %.01117, align 8
  %41 = load ptr, ptr %5, align 8
  %42 = load ptr, ptr %41, align 8
  %43 = call fastcc zeroext i1 @prefs_is_column_visible(ptr noundef %42, i32 noundef %.018)
  %44 = getelementptr inbounds nuw i8, ptr %40, i64 28
  %45 = zext i1 %43 to i8
  store i8 %45, ptr %44, align 4
  %46 = add i32 %.018, 1
  %47 = getelementptr inbounds nuw i8, ptr %.01117, i64 8
  %48 = load ptr, ptr %47, align 8
  %.not13 = icmp eq ptr %48, null
  br i1 %.not13, label %._crit_edge, label %.lr.ph, !llvm.loop !46

._crit_edge:                                      ; preds = %.lr.ph, %prefs_find_preference.exit.thread, %prefs_find_preference.exit, %36
  ret i32 0
}